target datalayout = "e-m:e-p270:32:32-p271:32:32-p272:64:64-i64:64-i128:128-f80:128-n8:16:32:64-S128"
target triple = "x86_64-pc-linux-gnu"

@pmix_frameworks = external global [0 x ptr], align 8
@pmix_info_registered = internal global i32 0, align 4

; Function Attrs: nounwind uwtable
define dso_local void @pmix_info_close_components() #0 {
  %1 = alloca i32, align 4
  %2 = alloca i32, align 4
  call void @llvm.lifetime.start.p0(i64 4, ptr %1) #13
  %3 = load i32, ptr @pmix_info_registered, align 4, !tbaa !18
  %4 = add nsw i32 %3, -1
  store i32 %4, ptr @pmix_info_registered, align 4, !tbaa !18
  %5 = icmp ne i32 %4, 0
  br i1 %5, label %6, label %7

6:                                                ; preds = %0
  store i32 1, ptr %2, align 4
  br label %25

7:                                                ; preds = %0
  store i32 0, ptr %1, align 4, !tbaa !18
  br label %8

8:                                                ; preds = %20, %7
  %9 = load i32, ptr %1, align 4, !tbaa !18
  %10 = sext i32 %9 to i64
  %11 = getelementptr inbounds [0 x ptr], ptr @pmix_frameworks, i64 0, i64 %10
  %12 = load ptr, ptr %11, align 8, !tbaa !41
  %13 = icmp ne ptr null, %12
  br i1 %13, label %14, label %23

14:                                               ; preds = %8
  %15 = load i32, ptr %1, align 4, !tbaa !18
  %16 = sext i32 %15 to i64
  %17 = getelementptr inbounds [0 x ptr], ptr @pmix_frameworks, i64 0, i64 %16
  %18 = load ptr, ptr %17, align 8, !tbaa !41
  %19 = call i32 @pmix_mca_base_framework_close(ptr noundef %18)
  br label %20

20:                                               ; preds = %14
  %21 = load i32, ptr %1, align 4, !tbaa !18
  %22 = add nsw i32 %21, 1
  store i32 %22, ptr %1, align 4, !tbaa !18
  br label %8, !llvm.loop !51

23:                                               ; preds = %8
  %24 = call i32 @pmix_mca_base_close()
  store i32 0, ptr %2, align 4
  br label %25

25:                                               ; preds = %23, %6
  call void @llvm.lifetime.end.p0(i64 4, ptr %1) #13
  %26 = load i32, ptr %2, align 4
  switch i32 %26, label %28 [
    i32 0, label %27
    i32 1, label %27
  ]

27:                                               ; preds = %25, %25
  ret void

28:                                               ; preds = %25
  unreachable
}