; Function Attrs: nounwind uwtable
define dso_local void @pmix_info_close_components() local_unnamed_addr #2 {
  %1 = load i32, ptr @pmix_info_registered, align 4, !tbaa !18
  %2 = add nsw i32 %1, -1
  store i32 %2, ptr @pmix_info_registered, align 4, !tbaa !18
  %.not = icmp eq i32 %2, 0
  br i1 %.not, label %.preheader, label %9

.preheader:                                       ; preds = %0
  %3 = load ptr, ptr @pmix_frameworks, align 8, !tbaa !37
  %.not45 = icmp eq ptr %3, null
  br i1 %.not45, label %._crit_edge, label %.lr.ph

.lr.ph:                                           ; preds = %.preheader, %.lr.ph
  %indvars.iv = phi i64 [ %indvars.iv.next, %.lr.ph ], [ 0, %.preheader ]
  %4 = phi ptr [ %7, %.lr.ph ], [ %3, %.preheader ]
  %5 = tail call i32 @pmix_mca_base_framework_close(ptr noundef nonnull %4) #17
  %indvars.iv.next = add nuw nsw i64 %indvars.iv, 1
  %6 = getelementptr inbounds nuw [0 x ptr], ptr @pmix_frameworks, i64 0, i64 %indvars.iv.next
  %7 = load ptr, ptr %6, align 8, !tbaa !37
  %.not4 = icmp eq ptr %7, null
  br i1 %.not4, label %._crit_edge, label %.lr.ph, !llvm.loop !51

._crit_edge:                                      ; preds = %.lr.ph, %.preheader
  %8 = tail call i32 @pmix_mca_base_close() #17
  br label %9

9:                                                ; preds = %0, %._crit_edge
  ret void
}